target datalayout = "e-m:e-p270:32:32-p271:32:32-p272:64:64-i64:64-i128:128-f80:128-n8:16:32:64-S128"
target triple = "x86_64-unknown-linux-gnu"

%struct.BlockDriverState = type { i32, i8, i8, i8, i8, i8, ptr, ptr, ptr, %struct.anon, i8, [4096 x i8], [4096 x i8], [4096 x i8], [16 x i8], ptr, [4096 x i8], %struct.BlockLimits, i32, i32, i32, i32, [32 x i8], %union.anon, %union.anon.0, %union.anon.1, i32, [16 x %struct.anon.2], ptr, %struct.anon.3, ptr, ptr, %struct.anon.4, ptr, ptr, i32, ptr, i64, i64, %struct.QemuMutex, %struct.anon.5, %struct.Stat64, i32, i32, i32, i32, i32, i32, %struct.QemuMutex, %struct.anon.6, %struct.CoQueue, i8, i32, i8, %struct.CoMutex, ptr, ptr }
%struct.anon = type { ptr }
%struct.BlockLimits = type { i32, i64, i32, i64, i32, i32, i32, i64, i32, i64, i64, i32, i8, i32, i32, i32, i32, i32, i32, i32 }
%union.anon = type { %struct.QTailQLink }
%struct.QTailQLink = type { ptr, ptr }
%union.anon.0 = type { %struct.QTailQLink }
%union.anon.1 = type { %struct.QTailQLink }
%struct.anon.2 = type { ptr }
%struct.anon.3 = type { ptr }
%struct.anon.4 = type { ptr }
%struct.anon.5 = type { ptr }
%struct.Stat64 = type { i64 }
%struct.QemuMutex = type { %union.pthread_mutex_t, i8 }
%union.pthread_mutex_t = type { %struct.__pthread_mutex_s }
%struct.__pthread_mutex_s = type { i32, i32, i32, i32, i32, i16, i16, %struct.__pthread_internal_list }
%struct.__pthread_internal_list = type { ptr, ptr }
%struct.anon.6 = type { ptr }
%struct.CoQueue = type { %struct.anon.7 }
%struct.anon.7 = type { ptr, ptr }
%struct.CoMutex = type { i32, ptr, %struct.anon.8, %struct.anon.8, i32, i32, ptr }
%struct.anon.8 = type { ptr }
%struct.BDRVQcow2State = type { i32, i32, i32, i32, i32, i32, i32, i32, i32, i32, i32, i32, i32, i32, i64, i64, ptr, ptr, ptr, ptr, i32, %struct.anon.9, ptr, i64, i32, i32, i64, i64, %struct.CoMutex, %struct.Qcow2CryptoHeaderExtension, ptr, ptr, i8, i32, i64, i32, i32, ptr, i32, i64, i64, i32, i32, i8, i32, i32, i64, ptr, ptr, [5 x i8], i8, i32, i8, i64, i64, i64, i64, ptr, %struct.anon.10, %union.anon.11, i8, ptr, ptr, ptr, %struct.CoQueue, i32, ptr, i8, i8, i32 }
%struct.anon.9 = type { ptr }
%struct.Qcow2CryptoHeaderExtension = type { i64, i64 }
%struct.anon.10 = type { ptr }
%union.anon.11 = type { %struct.QTailQLink }
%struct.QCowL2Meta = type { i64, i64, i32, i8, %struct.CoQueue, %struct.Qcow2COWRegion, %struct.Qcow2COWRegion, i8, i8, ptr, i64, ptr, %struct.anon.14 }
%struct.Qcow2COWRegion = type { i32, i32 }
%struct.anon.14 = type { ptr, ptr }
%struct.QemuLockable = type { ptr, ptr, ptr }

; Function Attrs: nounwind sspstrong uwtable
define internal i64 @l2meta_cow_end(ptr noundef %m) #0 {
entry:
  %m.addr = alloca ptr, align 8
  store ptr %m, ptr %m.addr, align 8
  %0 = load ptr, ptr %m.addr, align 8
  %offset = getelementptr inbounds %struct.QCowL2Meta, ptr %0, i32 0, i32 0
  %1 = load i64, ptr %offset, align 8
  %2 = load ptr, ptr %m.addr, align 8
  %cow_end = getelementptr inbounds %struct.QCowL2Meta, ptr %2, i32 0, i32 6
  %offset1 = getelementptr inbounds %struct.Qcow2COWRegion, ptr %cow_end, i32 0, i32 0
  %3 = load i32, ptr %offset1, align 8
  %conv = zext i32 %3 to i64
  %add = add i64 %1, %conv
  %4 = load ptr, ptr %m.addr, align 8
  %cow_end2 = getelementptr inbounds %struct.QCowL2Meta, ptr %4, i32 0, i32 6
  %nb_bytes = getelementptr inbounds %struct.Qcow2COWRegion, ptr %cow_end2, i32 0, i32 1
  %5 = load i32, ptr %nb_bytes, align 4
  %conv3 = zext i32 %5 to i64
  %add4 = add i64 %add, %conv3
  ret i64 %add4
}

; Function Attrs: nounwind sspstrong uwtable
define internal i64 @start_of_cluster(ptr noundef %s, i64 noundef %offset) #0 {
entry:
  %s.addr = alloca ptr, align 8
  %offset.addr = alloca i64, align 8
  store ptr %s, ptr %s.addr, align 8
  store i64 %offset, ptr %offset.addr, align 8
  %0 = load i64, ptr %offset.addr, align 8
  %1 = load ptr, ptr %s.addr, align 8
  %cluster_size = getelementptr inbounds %struct.BDRVQcow2State, ptr %1, i32 0, i32 1
  %2 = load i32, ptr %cluster_size, align 4
  %sub = sub i32 %2, 1
  %not = xor i32 %sub, -1
  %conv = sext i32 %not to i64
  %and = and i64 %0, %conv
  ret i64 %and
}

; Function Attrs: nounwind sspstrong uwtable
define internal i64 @l2meta_cow_start(ptr noundef %m) #0 {
entry:
  %m.addr = alloca ptr, align 8
  store ptr %m, ptr %m.addr, align 8
  %0 = load ptr, ptr %m.addr, align 8
  %offset = getelementptr inbounds %struct.QCowL2Meta, ptr %0, i32 0, i32 0
  %1 = load i64, ptr %offset, align 8
  %2 = load ptr, ptr %m.addr, align 8
  %cow_start = getelementptr inbounds %struct.QCowL2Meta, ptr %2, i32 0, i32 5
  %offset1 = getelementptr inbounds %struct.Qcow2COWRegion, ptr %cow_start, i32 0, i32 0
  %3 = load i32, ptr %offset1, align 8
  %conv = zext i32 %3 to i64
  %add = add i64 %1, %conv
  ret i64 %add
}

; Function Attrs: nounwind sspstrong uwtable
define internal i32 @handle_dependencies(ptr noundef %bs, i64 noundef %guest_offset, ptr noundef %cur_bytes, ptr noundef %m) #0 {
entry:
  %x.addr.i = alloca ptr, align 8
  %lockable.addr.i = alloca ptr, align 8
  %retval = alloca i32, align 4
  %bs.addr = alloca ptr, align 8
  %guest_offset.addr = alloca i64, align 8
  %cur_bytes.addr = alloca ptr, align 8
  %m.addr = alloca ptr, align 8
  %s = alloca ptr, align 8
  %old_alloc = alloca ptr, align 8
  %bytes = alloca i64, align 8
  %start = alloca i64, align 8
  %end = alloca i64, align 8
  %old_start = alloca i64, align 8
  %old_end = alloca i64, align 8
  %.compoundliteral = alloca %struct.QemuLockable, align 8
  store ptr %bs, ptr %bs.addr, align 8
  store i64 %guest_offset, ptr %guest_offset.addr, align 8
  store ptr %cur_bytes, ptr %cur_bytes.addr, align 8
  store ptr %m, ptr %m.addr, align 8
  %0 = load ptr, ptr %bs.addr, align 8
  %opaque = getelementptr inbounds %struct.BlockDriverState, ptr %0, i32 0, i32 7
  %1 = load ptr, ptr %opaque, align 8
  store ptr %1, ptr %s, align 8
  %2 = load ptr, ptr %cur_bytes.addr, align 8
  %3 = load i64, ptr %2, align 8
  store i64 %3, ptr %bytes, align 8
  %4 = load ptr, ptr %s, align 8
  %cluster_allocs = getelementptr inbounds %struct.BDRVQcow2State, ptr %4, i32 0, i32 21
  %lh_first = getelementptr inbounds %struct.anon.9, ptr %cluster_allocs, i32 0, i32 0
  %5 = load ptr, ptr %lh_first, align 8
  store ptr %5, ptr %old_alloc, align 8
  br label %for.cond

for.cond:                                         ; preds = %for.inc, %entry
  %6 = load ptr, ptr %old_alloc, align 8
  %tobool = icmp ne ptr %6, null
  br i1 %tobool, label %for.body, label %for.end

for.body:                                         ; preds = %for.cond
  %7 = load i64, ptr %guest_offset.addr, align 8
  store i64 %7, ptr %start, align 8
  %8 = load i64, ptr %start, align 8
  %9 = load i64, ptr %bytes, align 8
  %add = add i64 %8, %9
  store i64 %add, ptr %end, align 8
  %10 = load ptr, ptr %s, align 8
  %11 = load ptr, ptr %old_alloc, align 8
  %call = call i64 @l2meta_cow_start(ptr noundef %11)
  %call1 = call i64 @start_of_cluster(ptr noundef %10, i64 noundef %call)
  store i64 %call1, ptr %old_start, align 8
  %12 = load ptr, ptr %old_alloc, align 8
  %call2 = call i64 @l2meta_cow_end(ptr noundef %12)
  %13 = load ptr, ptr %s, align 8
  %cluster_size = getelementptr inbounds %struct.BDRVQcow2State, ptr %13, i32 0, i32 1
  %14 = load i32, ptr %cluster_size, align 4
  %conv = sext i32 %14 to i64
  %add3 = add i64 %call2, %conv
  %sub = sub i64 %add3, 1
  %15 = load ptr, ptr %s, align 8
  %cluster_size4 = getelementptr inbounds %struct.BDRVQcow2State, ptr %15, i32 0, i32 1
  %16 = load i32, ptr %cluster_size4, align 4
  %conv5 = sext i32 %16 to i64
  %sub6 = sub i64 0, %conv5
  %and = and i64 %sub, %sub6
  store i64 %and, ptr %old_end, align 8
  %17 = load i64, ptr %end, align 8
  %18 = load i64, ptr %old_start, align 8
  %cmp = icmp ule i64 %17, %18
  br i1 %cmp, label %if.then, label %lor.lhs.false

lor.lhs.false:                                    ; preds = %for.body
  %19 = load i64, ptr %start, align 8
  %20 = load i64, ptr %old_end, align 8
  %cmp8 = icmp uge i64 %19, %20
  br i1 %cmp8, label %if.then, label %if.end

if.then:                                          ; preds = %lor.lhs.false, %for.body
  br label %for.inc

if.end:                                           ; preds = %lor.lhs.false
  %21 = load ptr, ptr %old_alloc, align 8
  %keep_old_clusters = getelementptr inbounds %struct.QCowL2Meta, ptr %21, i32 0, i32 3
  %22 = load i8, ptr %keep_old_clusters, align 4
  %tobool10 = trunc i8 %22 to i1
  br i1 %tobool10, label %land.lhs.true, label %if.end20

land.lhs.true:                                    ; preds = %if.end
  %23 = load i64, ptr %end, align 8
  %24 = load ptr, ptr %old_alloc, align 8
  %call12 = call i64 @l2meta_cow_start(ptr noundef %24)
  %cmp13 = icmp ule i64 %23, %call12
  br i1 %cmp13, label %if.then19, label %lor.lhs.false15

lor.lhs.false15:                                  ; preds = %land.lhs.true
  %25 = load i64, ptr %start, align 8
  %26 = load ptr, ptr %old_alloc, align 8
  %call16 = call i64 @l2meta_cow_end(ptr noundef %26)
  %cmp17 = icmp uge i64 %25, %call16
  br i1 %cmp17, label %if.then19, label %if.end20

if.then19:                                        ; preds = %lor.lhs.false15, %land.lhs.true
  br label %for.inc

if.end20:                                         ; preds = %lor.lhs.false15, %if.end
  %27 = load i64, ptr %start, align 8
  %28 = load i64, ptr %old_start, align 8
  %cmp21 = icmp ult i64 %27, %28
  br i1 %cmp21, label %if.then23, label %if.else

if.then23:                                        ; preds = %if.end20
  %29 = load i64, ptr %old_start, align 8
  %30 = load i64, ptr %start, align 8
  %sub24 = sub i64 %29, %30
  store i64 %sub24, ptr %bytes, align 8
  br label %if.end25

if.else:                                          ; preds = %if.end20
  store i64 0, ptr %bytes, align 8
  br label %if.end25

if.end25:                                         ; preds = %if.else, %if.then23
  %31 = load i64, ptr %bytes, align 8
  %cmp26 = icmp eq i64 %31, 0
  br i1 %cmp26, label %land.lhs.true28, label %if.end31

land.lhs.true28:                                  ; preds = %if.end25
  %32 = load ptr, ptr %m.addr, align 8
  %33 = load ptr, ptr %32, align 8
  %tobool29 = icmp ne ptr %33, null
  br i1 %tobool29, label %if.then30, label %if.end31

if.then30:                                        ; preds = %land.lhs.true28
  %34 = load ptr, ptr %cur_bytes.addr, align 8
  store i64 0, ptr %34, align 8
  store i32 0, ptr %retval, align 4
  br label %return

if.end31:                                         ; preds = %land.lhs.true28, %if.end25
  %35 = load i64, ptr %bytes, align 8
  %cmp32 = icmp eq i64 %35, 0
  br i1 %cmp32, label %if.then34, label %if.end38

if.then34:                                        ; preds = %if.end31
  %36 = load ptr, ptr %old_alloc, align 8
  %dependent_requests = getelementptr inbounds %struct.QCowL2Meta, ptr %36, i32 0, i32 4
  %37 = load ptr, ptr %s, align 8
  %lock = getelementptr inbounds %struct.BDRVQcow2State, ptr %37, i32 0, i32 28
  %object = getelementptr inbounds %struct.QemuLockable, ptr %.compoundliteral, i32 0, i32 0
  %38 = load ptr, ptr %s, align 8
  %lock35 = getelementptr inbounds %struct.BDRVQcow2State, ptr %38, i32 0, i32 28
  store ptr %lock35, ptr %object, align 8
  %lock36 = getelementptr inbounds %struct.QemuLockable, ptr %.compoundliteral, i32 0, i32 1
  store ptr @qemu_co_mutex_lock, ptr %lock36, align 8
  %unlock = getelementptr inbounds %struct.QemuLockable, ptr %.compoundliteral, i32 0, i32 2
  store ptr @qemu_co_mutex_unlock, ptr %unlock, align 8
  store ptr %lock, ptr %x.addr.i, align 8
  store ptr %.compoundliteral, ptr %lockable.addr.i, align 8
  %39 = load ptr, ptr %x.addr.i, align 8
  %tobool.i = icmp ne ptr %39, null
  br i1 %tobool.i, label %cond.true.i, label %cond.false.i

cond.true.i:                                      ; preds = %if.then34
  %40 = load ptr, ptr %lockable.addr.i, align 8
  br label %qemu_make_lockable.exit

cond.false.i:                                     ; preds = %if.then34
  br label %qemu_make_lockable.exit

qemu_make_lockable.exit:                          ; preds = %cond.false.i, %cond.true.i
  %cond.i = phi ptr [ %40, %cond.true.i ], [ null, %cond.false.i ]
  call void @qemu_co_queue_wait_impl(ptr noundef %dependent_requests, ptr noundef %cond.i, i32 noundef 0)
  store i32 -11, ptr %retval, align 4
  br label %return

if.end38:                                         ; preds = %if.end31
  br label %for.inc

for.inc:                                          ; preds = %if.end38, %if.then19, %if.then
  %41 = load ptr, ptr %old_alloc, align 8
  %next_in_flight = getelementptr inbounds %struct.QCowL2Meta, ptr %41, i32 0, i32 12
  %le_next = getelementptr inbounds %struct.anon.14, ptr %next_in_flight, i32 0, i32 0
  %42 = load ptr, ptr %le_next, align 8
  store ptr %42, ptr %old_alloc, align 8
  br label %for.cond, !llvm.loop !14

for.end:                                          ; preds = %for.cond
  %43 = load i64, ptr %bytes, align 8
  %44 = load ptr, ptr %cur_bytes.addr, align 8
  store i64 %43, ptr %44, align 8
  store i32 0, ptr %retval, align 4
  br label %return

return:                                           ; preds = %for.end, %qemu_make_lockable.exit, %if.then30
  %45 = load i32, ptr %retval, align 4
  ret i32 %45
}