; Function Attrs: nounwind sspstrong uwtable
define internal range(i32 -11, 1) i32 @handle_dependencies(ptr noundef readonly captures(none) %bs, i64 noundef %guest_offset, ptr noundef captures(none) %cur_bytes, ptr noundef readonly captures(none) %m) #0 {
entry:
  %.compoundliteral = alloca %struct.QemuLockable, align 8
  %opaque = getelementptr inbounds nuw i8, ptr %bs, i64 24
  %0 = load ptr, ptr %opaque, align 8
  %1 = load i64, ptr %cur_bytes, align 8
  %cluster_allocs = getelementptr inbounds nuw i8, ptr %0, i64 112
  %old_alloc.041 = load ptr, ptr %cluster_allocs, align 8
  %tobool.not42 = icmp eq ptr %old_alloc.041, null
  br i1 %tobool.not42, label %for.end, label %for.body.lr.ph

for.body.lr.ph:                                   ; preds = %entry
  %2 = getelementptr i8, ptr %0, i64 4
  %.val = load i32, ptr %2, align 4
  %not.i = sub i32 0, %.val
  %conv.i28 = sext i32 %not.i to i64
  %conv = sext i32 %.val to i64
  %add3 = add nsw i64 %conv, -1
  %sub6 = sub nsw i64 0, %conv
  br label %for.body

for.body:                                         ; preds = %for.body.lr.ph, %for.inc
  %old_alloc.044 = phi ptr [ %old_alloc.041, %for.body.lr.ph ], [ %old_alloc.0, %for.inc ]
  %bytes.043 = phi i64 [ %1, %for.body.lr.ph ], [ %bytes.1, %for.inc ]
  %add = add i64 %bytes.043, %guest_offset
  %old_alloc.0.val = load i64, ptr %old_alloc.044, align 8
  %3 = getelementptr i8, ptr %old_alloc.044, i64 40
  %old_alloc.0.val25 = load i32, ptr %3, align 8
  %conv.i = zext i32 %old_alloc.0.val25 to i64
  %add.i = add i64 %old_alloc.0.val, %conv.i
  %and.i = and i64 %add.i, %conv.i28
  %cow_end.i = getelementptr inbounds nuw i8, ptr %old_alloc.044, i64 48
  %4 = load i32, ptr %cow_end.i, align 8
  %conv.i29 = zext i32 %4 to i64
  %add.i30 = add i64 %old_alloc.0.val, %conv.i29
  %nb_bytes.i = getelementptr inbounds nuw i8, ptr %old_alloc.044, i64 52
  %5 = load i32, ptr %nb_bytes.i, align 4
  %conv3.i = zext i32 %5 to i64
  %add4.i = add i64 %add.i30, %conv3.i
  %cmp.not = icmp ugt i64 %add, %and.i
  br i1 %cmp.not, label %lor.lhs.false, label %for.inc

lor.lhs.false:                                    ; preds = %for.body
  %sub = add i64 %add3, %add4.i
  %and = and i64 %sub, %sub6
  %cmp8.not = icmp ult i64 %guest_offset, %and
  br i1 %cmp8.not, label %if.end, label %for.inc

if.end:                                           ; preds = %lor.lhs.false
  %keep_old_clusters = getelementptr inbounds nuw i8, ptr %old_alloc.044, i64 20
  %6 = load i8, ptr %keep_old_clusters, align 4
  %tobool10 = trunc i8 %6 to i1
  br i1 %tobool10, label %land.lhs.true, label %if.end20

land.lhs.true:                                    ; preds = %if.end
  %cmp13.not = icmp ugt i64 %add, %add.i
  %cmp17.not = icmp ult i64 %guest_offset, %add4.i
  %or.cond = select i1 %cmp13.not, i1 %cmp17.not, i1 false
  br i1 %or.cond, label %if.end20, label %for.inc

if.end20:                                         ; preds = %land.lhs.true, %if.end
  %sub24 = sub nuw i64 %and.i, %guest_offset
  %cmp26.not = icmp ugt i64 %and.i, %guest_offset
  br i1 %cmp26.not, label %for.inc, label %land.lhs.true28

land.lhs.true28:                                  ; preds = %if.end20
  %7 = load ptr, ptr %m, align 8
  %tobool29.not = icmp eq ptr %7, null
  br i1 %tobool29.not, label %if.then34, label %if.then30

if.then30:                                        ; preds = %land.lhs.true28
  store i64 0, ptr %cur_bytes, align 8
  br label %return

if.then34:                                        ; preds = %land.lhs.true28
  %dependent_requests = getelementptr inbounds nuw i8, ptr %old_alloc.044, i64 24
  %lock = getelementptr inbounds nuw i8, ptr %0, i64 160
  store ptr %lock, ptr %.compoundliteral, align 8
  %lock36 = getelementptr inbounds nuw i8, ptr %.compoundliteral, i64 8
  store ptr @qemu_co_mutex_lock, ptr %lock36, align 8
  %unlock = getelementptr inbounds nuw i8, ptr %.compoundliteral, i64 16
  store ptr @qemu_co_mutex_unlock, ptr %unlock, align 8
  call void @qemu_co_queue_wait_impl(ptr noundef nonnull %dependent_requests, ptr noundef nonnull %.compoundliteral, i32 noundef 0) #13
  br label %return

for.inc:                                          ; preds = %if.end20, %land.lhs.true, %for.body, %lor.lhs.false
  %bytes.1 = phi i64 [ %bytes.043, %for.body ], [ %bytes.043, %lor.lhs.false ], [ %bytes.043, %land.lhs.true ], [ %sub24, %if.end20 ]
  %next_in_flight = getelementptr inbounds nuw i8, ptr %old_alloc.044, i64 88
  %old_alloc.0 = load ptr, ptr %next_in_flight, align 8
  %tobool.not = icmp eq ptr %old_alloc.0, null
  br i1 %tobool.not, label %for.end, label %for.body, !llvm.loop !15

for.end:                                          ; preds = %for.inc, %entry
  %bytes.0.lcssa = phi i64 [ %1, %entry ], [ %bytes.1, %for.inc ]
  store i64 %bytes.0.lcssa, ptr %cur_bytes, align 8
  br label %return

return:                                           ; preds = %for.end, %if.then34, %if.then30
  %retval.0 = phi i32 [ 0, %if.then30 ], [ -11, %if.then34 ], [ 0, %for.end ]
  ret i32 %retval.0
}